(dp1
S'public_ip_subnetwork'
p2
ccopy_reg
_reconstructor
p3
(cnetaddr.ip
IPNetwork
p4
c__builtin__
object
p5
NtRp6
(I3232236033
I24
I4
tbsS'mac_on_dhcp'
p7
S'08:00:27:b8:0f:8d'
p8
sS'mac_on_wan'
p9
S'00:0e:c6:87:a6:fb'
p10
sS'broadcast_ip'
p11
g3
(cnetaddr.ip
IPAddress
p12
g5
NtRp13
(I3232237823
I4
tbsS'wan_port'
p14
I1
sS'private_gateway'
p15
g3
(g12
g5
NtRp16
(I3232237569
I4
tbsS'dns_ip'
p17
g3
(g12
g5
NtRp18
(I134744072
I4
tbsS'public_ip'
p19
g3
(g12
g5
NtRp20
(I3232236041
I4
tbsS'public_gateway'
p21
g3
(g12
g5
NtRp22
(I3232236033
I4
tbsS'private_subnetwork'
p23
g3
(g4
g5
NtRp24
(I3232237568
I24
I4
tbsS'mac_on_lan'
p25
S'00:0e:c6:87:a6:fa'
p26
s.